target datalayout = "e-m:e-p270:32:32-p271:32:32-p272:64:64-i64:64-i128:128-f80:128-n8:16:32:64-S128"
target triple = "x86_64-pc-linux-gnu"

%struct.jit_State = type { %struct.GCtrace, ptr, ptr, ptr, ptr, ptr, ptr, i32, i32, i32, i8, i8, %struct.IRType1, i8, %struct.FoldState, ptr, i32, i32, i32, i32, i32, i32, i32, [1 x i32], [5 x %union.TValue], [3 x %union.TValue], ptr, i32, i32, i32, i32, ptr, ptr, i32, i32, i8, ptr, i32, i32, i16, [101 x i16], [258 x i32], [15 x i32], [16 x ptr], [64 x %struct.HotPenalty], i32, [16 x %struct.BPropEntry], i32, %struct.ScEvEntry, ptr, i32, i32, i32, ptr, i32, i32, ptr, ptr, ptr, i64, i64, %union.TValue, ptr, i32, i32 }
%struct.GCtrace = type { %struct.GCRef, i8, i8, i16, i32, i32, %struct.GCRef, ptr, i32, i32, ptr, ptr, %struct.GCRef, %struct.MRef, i32, i32, ptr, i32, i16, i16, i16, i16, i16, i16, i16, i8, i8, i8, i8 }
%struct.GCRef = type { i64 }
%struct.MRef = type { i64 }
%struct.IRType1 = type { i8 }
%struct.FoldState = type { %union.IRIns, [2 x %union.IRIns], [2 x %union.IRIns] }
%union.IRIns = type { %struct.GCRef }
%struct.HotPenalty = type { %struct.MRef, i16, i16 }
%struct.BPropEntry = type { i16, i16, i32 }
%struct.ScEvEntry = type { %struct.MRef, i16, i16, i16, i16, %struct.IRType1, i8 }
%union.TValue = type { i64 }
%struct.anon = type { i16, i16, i16, i16 }
%struct.anon.0 = type { i32, %struct.IRType1, i8, i8, i8 }

; Function Attrs: nounwind uwtable
define internal i32 @aa_escape(ptr noundef %0, ptr noundef %1, ptr noundef %2) #0 {
  %4 = alloca i32, align 4
  %5 = alloca ptr, align 8
  %6 = alloca ptr, align 8
  %7 = alloca ptr, align 8
  %8 = alloca i32, align 4
  %9 = alloca i32, align 4
  store ptr %0, ptr %5, align 8, !tbaa !4
  store ptr %1, ptr %6, align 8, !tbaa !32
  store ptr %2, ptr %7, align 8, !tbaa !32
  call void @llvm.lifetime.start.p0(i64 4, ptr %8) #5
  %10 = load ptr, ptr %6, align 8, !tbaa !32
  %11 = load ptr, ptr %5, align 8, !tbaa !4
  %12 = getelementptr inbounds nuw %struct.jit_State, ptr %11, i32 0, i32 0
  %13 = getelementptr inbounds nuw %struct.GCtrace, ptr %12, i32 0, i32 7
  %14 = load ptr, ptr %13, align 8, !tbaa !14
  %15 = ptrtoint ptr %10 to i64
  %16 = ptrtoint ptr %14 to i64
  %17 = sub i64 %15, %16
  %18 = sdiv exact i64 %17, 8
  %19 = trunc i64 %18 to i32
  store i32 %19, ptr %8, align 4, !tbaa !9
  %20 = load ptr, ptr %6, align 8, !tbaa !32
  %21 = getelementptr inbounds nuw %union.IRIns, ptr %20, i32 1
  store ptr %21, ptr %6, align 8, !tbaa !32
  br label %22

22:                                               ; preds = %59, %3
  %23 = load ptr, ptr %6, align 8, !tbaa !32
  %24 = load ptr, ptr %7, align 8, !tbaa !32
  %25 = icmp ult ptr %23, %24
  br i1 %25, label %26, label %62

26:                                               ; preds = %22
  %27 = load ptr, ptr %6, align 8, !tbaa !32
  %28 = getelementptr inbounds nuw %struct.anon, ptr %27, i32 0, i32 1
  %29 = load i16, ptr %28, align 2, !tbaa !11
  %30 = zext i16 %29 to i32
  %31 = load i32, ptr %8, align 4, !tbaa !9
  %32 = icmp eq i32 %30, %31
  br i1 %32, label %33, label %58

33:                                               ; preds = %26
  %34 = load ptr, ptr %6, align 8, !tbaa !32
  %35 = getelementptr inbounds nuw %struct.anon.0, ptr %34, i32 0, i32 2
  %36 = load i8, ptr %35, align 1, !tbaa !11
  %37 = zext i8 %36 to i32
  %38 = icmp eq i32 %37, 74
  br i1 %38, label %57, label %39

39:                                               ; preds = %33
  %40 = load ptr, ptr %6, align 8, !tbaa !32
  %41 = getelementptr inbounds nuw %struct.anon.0, ptr %40, i32 0, i32 2
  %42 = load i8, ptr %41, align 1, !tbaa !11
  %43 = zext i8 %42 to i32
  %44 = icmp eq i32 %43, 75
  br i1 %44, label %57, label %45

45:                                               ; preds = %39
  %46 = load ptr, ptr %6, align 8, !tbaa !32
  %47 = getelementptr inbounds nuw %struct.anon.0, ptr %46, i32 0, i32 2
  %48 = load i8, ptr %47, align 1, !tbaa !11
  %49 = zext i8 %48 to i32
  %50 = icmp eq i32 %49, 76
  br i1 %50, label %57, label %51

51:                                               ; preds = %45
  %52 = load ptr, ptr %6, align 8, !tbaa !32
  %53 = getelementptr inbounds nuw %struct.anon.0, ptr %52, i32 0, i32 2
  %54 = load i8, ptr %53, align 1, !tbaa !11
  %55 = zext i8 %54 to i32
  %56 = icmp eq i32 %55, 77
  br i1 %56, label %57, label %58

57:                                               ; preds = %51, %45, %39, %33
  store i32 1, ptr %4, align 4
  store i32 1, ptr %9, align 4
  br label %63

58:                                               ; preds = %51, %26
  br label %59

59:                                               ; preds = %58
  %60 = load ptr, ptr %6, align 8, !tbaa !32
  %61 = getelementptr inbounds nuw %union.IRIns, ptr %60, i32 1
  store ptr %61, ptr %6, align 8, !tbaa !32
  br label %22, !llvm.loop !75

62:                                               ; preds = %22
  store i32 0, ptr %4, align 4
  store i32 1, ptr %9, align 4
  br label %63

63:                                               ; preds = %62, %57
  call void @llvm.lifetime.end.p0(i64 4, ptr %8) #5
  %64 = load i32, ptr %4, align 4
  ret i32 %64
}

; Function Attrs: nounwind uwtable
define internal i32 @fwd_aa_tab_clear(ptr noundef %0, i32 noundef %1, i32 noundef %2) #0 {
  %4 = alloca i32, align 4
  %5 = alloca ptr, align 8
  %6 = alloca i32, align 4
  %7 = alloca i32, align 4
  %8 = alloca i32, align 4
  %9 = alloca ptr, align 8
  %10 = alloca i32, align 4
  store ptr %0, ptr %5, align 8, !tbaa !4
  store i32 %1, ptr %6, align 4, !tbaa !9
  store i32 %2, ptr %7, align 4, !tbaa !9
  call void @llvm.lifetime.start.p0(i64 4, ptr %8) #5
  %11 = load ptr, ptr %5, align 8, !tbaa !4
  %12 = getelementptr inbounds nuw %struct.jit_State, ptr %11, i32 0, i32 40
  %13 = getelementptr inbounds [101 x i16], ptr %12, i64 0, i64 98
  %14 = load i16, ptr %13, align 2, !tbaa !12
  %15 = zext i16 %14 to i32
  store i32 %15, ptr %8, align 4, !tbaa !9
  br label %16

16:                                               ; preds = %57, %3
  %17 = load i32, ptr %8, align 4, !tbaa !9
  %18 = load i32, ptr %6, align 4, !tbaa !9
  %19 = icmp ugt i32 %17, %18
  br i1 %19, label %20, label %58

20:                                               ; preds = %16
  call void @llvm.lifetime.start.p0(i64 8, ptr %9) #5
  %21 = load ptr, ptr %5, align 8, !tbaa !4
  %22 = getelementptr inbounds nuw %struct.jit_State, ptr %21, i32 0, i32 0
  %23 = getelementptr inbounds nuw %struct.GCtrace, ptr %22, i32 0, i32 7
  %24 = load ptr, ptr %23, align 8, !tbaa !14
  %25 = load i32, ptr %8, align 4, !tbaa !9
  %26 = zext i32 %25 to i64
  %27 = getelementptr inbounds nuw %union.IRIns, ptr %24, i64 %26
  store ptr %27, ptr %9, align 8, !tbaa !32
  %28 = load ptr, ptr %9, align 8, !tbaa !32
  %29 = getelementptr inbounds nuw %struct.anon, ptr %28, i32 0, i32 1
  %30 = load i16, ptr %29, align 2, !tbaa !11
  %31 = zext i16 %30 to i32
  %32 = icmp eq i32 %31, 34
  br i1 %32, label %33, label %50

33:                                               ; preds = %20
  %34 = load i32, ptr %7, align 4, !tbaa !9
  %35 = load ptr, ptr %9, align 8, !tbaa !32
  %36 = getelementptr inbounds nuw %struct.anon, ptr %35, i32 0, i32 0
  %37 = load i16, ptr %36, align 8, !tbaa !11
  %38 = zext i16 %37 to i32
  %39 = icmp eq i32 %34, %38
  br i1 %39, label %49, label %40

40:                                               ; preds = %33
  %41 = load ptr, ptr %5, align 8, !tbaa !4
  %42 = load i32, ptr %7, align 4, !tbaa !9
  %43 = load ptr, ptr %9, align 8, !tbaa !32
  %44 = getelementptr inbounds nuw %struct.anon, ptr %43, i32 0, i32 0
  %45 = load i16, ptr %44, align 8, !tbaa !11
  %46 = zext i16 %45 to i32
  %47 = call i32 @aa_table(ptr noundef %41, i32 noundef %42, i32 noundef %46)
  %48 = icmp ne i32 %47, 0
  br i1 %48, label %49, label %50

49:                                               ; preds = %40, %33
  store i32 0, ptr %4, align 4
  store i32 1, ptr %10, align 4
  br label %55

50:                                               ; preds = %40, %20
  %51 = load ptr, ptr %9, align 8, !tbaa !32
  %52 = getelementptr inbounds nuw %struct.anon, ptr %51, i32 0, i32 3
  %53 = load i16, ptr %52, align 2, !tbaa !11
  %54 = zext i16 %53 to i32
  store i32 %54, ptr %8, align 4, !tbaa !9
  store i32 0, ptr %10, align 4
  br label %55

55:                                               ; preds = %50, %49
  call void @llvm.lifetime.end.p0(i64 8, ptr %9) #5
  %56 = load i32, ptr %10, align 4
  switch i32 %56, label %59 [
    i32 0, label %57
  ]

57:                                               ; preds = %55
  br label %16, !llvm.loop !35

58:                                               ; preds = %16
  store i32 1, ptr %4, align 4
  store i32 1, ptr %10, align 4
  br label %59

59:                                               ; preds = %58, %55
  call void @llvm.lifetime.end.p0(i64 4, ptr %8) #5
  %60 = load i32, ptr %4, align 4
  ret i32 %60
}

; Function Attrs: nounwind uwtable
define internal i32 @aa_table(ptr noundef %0, i32 noundef %1, i32 noundef %2) #0 {
  %4 = alloca i32, align 4
  %5 = alloca ptr, align 8
  %6 = alloca i32, align 4
  %7 = alloca i32, align 4
  %8 = alloca ptr, align 8
  %9 = alloca ptr, align 8
  %10 = alloca i32, align 4
  %11 = alloca i32, align 4
  %12 = alloca i32, align 4
  %13 = alloca ptr, align 8
  store ptr %0, ptr %5, align 8, !tbaa !4
  store i32 %1, ptr %6, align 4, !tbaa !9
  store i32 %2, ptr %7, align 4, !tbaa !9
  call void @llvm.lifetime.start.p0(i64 8, ptr %8) #5
  %14 = load ptr, ptr %5, align 8, !tbaa !4
  %15 = getelementptr inbounds nuw %struct.jit_State, ptr %14, i32 0, i32 0
  %16 = getelementptr inbounds nuw %struct.GCtrace, ptr %15, i32 0, i32 7
  %17 = load ptr, ptr %16, align 8, !tbaa !14
  %18 = load i32, ptr %6, align 4, !tbaa !9
  %19 = zext i32 %18 to i64
  %20 = getelementptr inbounds nuw %union.IRIns, ptr %17, i64 %19
  store ptr %20, ptr %8, align 8, !tbaa !32
  call void @llvm.lifetime.start.p0(i64 8, ptr %9) #5
  %21 = load ptr, ptr %5, align 8, !tbaa !4
  %22 = getelementptr inbounds nuw %struct.jit_State, ptr %21, i32 0, i32 0
  %23 = getelementptr inbounds nuw %struct.GCtrace, ptr %22, i32 0, i32 7
  %24 = load ptr, ptr %23, align 8, !tbaa !14
  %25 = load i32, ptr %7, align 4, !tbaa !9
  %26 = zext i32 %25 to i64
  %27 = getelementptr inbounds nuw %union.IRIns, ptr %24, i64 %26
  store ptr %27, ptr %9, align 8, !tbaa !32
  call void @llvm.lifetime.start.p0(i64 4, ptr %10) #5
  call void @llvm.lifetime.start.p0(i64 4, ptr %11) #5
  %28 = load ptr, ptr %8, align 8, !tbaa !32
  %29 = getelementptr inbounds nuw %struct.anon.0, ptr %28, i32 0, i32 2
  %30 = load i8, ptr %29, align 1, !tbaa !11
  %31 = zext i8 %30 to i32
  %32 = icmp eq i32 %31, 81
  br i1 %32, label %39, label %33

33:                                               ; preds = %3
  %34 = load ptr, ptr %8, align 8, !tbaa !32
  %35 = getelementptr inbounds nuw %struct.anon.0, ptr %34, i32 0, i32 2
  %36 = load i8, ptr %35, align 1, !tbaa !11
  %37 = zext i8 %36 to i32
  %38 = icmp eq i32 %37, 82
  br label %39

39:                                               ; preds = %33, %3
  %40 = phi i1 [ true, %3 ], [ %38, %33 ]
  %41 = zext i1 %40 to i32
  store i32 %41, ptr %10, align 4, !tbaa !9
  %42 = load ptr, ptr %9, align 8, !tbaa !32
  %43 = getelementptr inbounds nuw %struct.anon.0, ptr %42, i32 0, i32 2
  %44 = load i8, ptr %43, align 1, !tbaa !11
  %45 = zext i8 %44 to i32
  %46 = icmp eq i32 %45, 81
  br i1 %46, label %53, label %47

47:                                               ; preds = %39
  %48 = load ptr, ptr %9, align 8, !tbaa !32
  %49 = getelementptr inbounds nuw %struct.anon.0, ptr %48, i32 0, i32 2
  %50 = load i8, ptr %49, align 1, !tbaa !11
  %51 = zext i8 %50 to i32
  %52 = icmp eq i32 %51, 82
  br label %53

53:                                               ; preds = %47, %39
  %54 = phi i1 [ true, %39 ], [ %52, %47 ]
  %55 = zext i1 %54 to i32
  store i32 %55, ptr %11, align 4, !tbaa !9
  %56 = load i32, ptr %10, align 4, !tbaa !9
  %57 = icmp ne i32 %56, 0
  br i1 %57, label %58, label %62

58:                                               ; preds = %53
  %59 = load i32, ptr %11, align 4, !tbaa !9
  %60 = icmp ne i32 %59, 0
  br i1 %60, label %61, label %62

61:                                               ; preds = %58
  store i32 0, ptr %4, align 4
  store i32 1, ptr %12, align 4
  br label %79

62:                                               ; preds = %58, %53
  %63 = load i32, ptr %11, align 4, !tbaa !9
  %64 = icmp ne i32 %63, 0
  br i1 %64, label %65, label %69

65:                                               ; preds = %62
  call void @llvm.lifetime.start.p0(i64 8, ptr %13) #5
  %66 = load ptr, ptr %8, align 8, !tbaa !32
  store ptr %66, ptr %13, align 8, !tbaa !32
  %67 = load ptr, ptr %9, align 8, !tbaa !32
  store ptr %67, ptr %8, align 8, !tbaa !32
  %68 = load ptr, ptr %13, align 8, !tbaa !32
  store ptr %68, ptr %9, align 8, !tbaa !32
  call void @llvm.lifetime.end.p0(i64 8, ptr %13) #5
  br label %74

69:                                               ; preds = %62
  %70 = load i32, ptr %10, align 4, !tbaa !9
  %71 = icmp ne i32 %70, 0
  br i1 %71, label %73, label %72

72:                                               ; preds = %69
  store i32 1, ptr %4, align 4
  store i32 1, ptr %12, align 4
  br label %79

73:                                               ; preds = %69
  br label %74

74:                                               ; preds = %73, %65
  %75 = load ptr, ptr %5, align 8, !tbaa !4
  %76 = load ptr, ptr %8, align 8, !tbaa !32
  %77 = load ptr, ptr %9, align 8, !tbaa !32
  %78 = call i32 @aa_escape(ptr noundef %75, ptr noundef %76, ptr noundef %77)
  store i32 %78, ptr %4, align 4
  store i32 1, ptr %12, align 4
  br label %79

79:                                               ; preds = %74, %72, %61
  call void @llvm.lifetime.end.p0(i64 4, ptr %11) #5
  call void @llvm.lifetime.end.p0(i64 4, ptr %10) #5
  call void @llvm.lifetime.end.p0(i64 8, ptr %9) #5
  call void @llvm.lifetime.end.p0(i64 8, ptr %8) #5
  %80 = load i32, ptr %4, align 4
  ret i32 %80
}

; Function Attrs: nounwind uwtable
define hidden i32 @lj_opt_fwd_tptr(ptr noundef %0, i32 noundef %1) #0 {
  %3 = alloca i32, align 4
  %4 = alloca ptr, align 8
  %5 = alloca i32, align 4
  %6 = alloca i32, align 4
  %7 = alloca i32, align 4
  %8 = alloca ptr, align 8
  %9 = alloca i32, align 4
  store ptr %0, ptr %4, align 8, !tbaa !4
  store i32 %1, ptr %5, align 4, !tbaa !9
  call void @llvm.lifetime.start.p0(i64 4, ptr %6) #5
  %10 = load ptr, ptr %4, align 8, !tbaa !4
  %11 = getelementptr inbounds nuw %struct.jit_State, ptr %10, i32 0, i32 14
  %12 = getelementptr inbounds nuw %struct.FoldState, ptr %11, i32 0, i32 0
  %13 = getelementptr inbounds nuw %struct.anon, ptr %12, i32 0, i32 0
  %14 = load i16, ptr %13, align 8, !tbaa !11
  %15 = zext i16 %14 to i32
  store i32 %15, ptr %6, align 4, !tbaa !9
  call void @llvm.lifetime.start.p0(i64 4, ptr %7) #5
  %16 = load ptr, ptr %4, align 8, !tbaa !4
  %17 = getelementptr inbounds nuw %struct.jit_State, ptr %16, i32 0, i32 40
  %18 = getelementptr inbounds [101 x i16], ptr %17, i64 0, i64 59
  %19 = load i16, ptr %18, align 2, !tbaa !12
  %20 = zext i16 %19 to i32
  store i32 %20, ptr %7, align 4, !tbaa !9
  br label %21

21:                                               ; preds = %56, %2
  %22 = load i32, ptr %7, align 4, !tbaa !9
  %23 = load i32, ptr %5, align 4, !tbaa !9
  %24 = icmp ugt i32 %22, %23
  br i1 %24, label %25, label %57

25:                                               ; preds = %21
  call void @llvm.lifetime.start.p0(i64 8, ptr %8) #5
  %26 = load ptr, ptr %4, align 8, !tbaa !4
  %27 = getelementptr inbounds nuw %struct.jit_State, ptr %26, i32 0, i32 0
  %28 = getelementptr inbounds nuw %struct.GCtrace, ptr %27, i32 0, i32 7
  %29 = load ptr, ptr %28, align 8, !tbaa !14
  %30 = load i32, ptr %7, align 4, !tbaa !9
  %31 = zext i32 %30 to i64
  %32 = getelementptr inbounds nuw %union.IRIns, ptr %29, i64 %31
  store ptr %32, ptr %8, align 8, !tbaa !32
  %33 = load i32, ptr %6, align 4, !tbaa !9
  %34 = load ptr, ptr %8, align 8, !tbaa !32
  %35 = getelementptr inbounds nuw %struct.anon, ptr %34, i32 0, i32 0
  %36 = load i16, ptr %35, align 8, !tbaa !11
  %37 = zext i16 %36 to i32
  %38 = icmp eq i32 %33, %37
  br i1 %38, label %48, label %39

39:                                               ; preds = %25
  %40 = load ptr, ptr %4, align 8, !tbaa !4
  %41 = load i32, ptr %6, align 4, !tbaa !9
  %42 = load ptr, ptr %8, align 8, !tbaa !32
  %43 = getelementptr inbounds nuw %struct.anon, ptr %42, i32 0, i32 0
  %44 = load i16, ptr %43, align 8, !tbaa !11
  %45 = zext i16 %44 to i32
  %46 = call i32 @aa_table(ptr noundef %40, i32 noundef %41, i32 noundef %45)
  %47 = icmp ne i32 %46, 0
  br i1 %47, label %48, label %49

48:                                               ; preds = %39, %25
  store i32 0, ptr %3, align 4
  store i32 1, ptr %9, align 4
  br label %54

49:                                               ; preds = %39
  %50 = load ptr, ptr %8, align 8, !tbaa !32
  %51 = getelementptr inbounds nuw %struct.anon, ptr %50, i32 0, i32 3
  %52 = load i16, ptr %51, align 2, !tbaa !11
  %53 = zext i16 %52 to i32
  store i32 %53, ptr %7, align 4, !tbaa !9
  store i32 0, ptr %9, align 4
  br label %54

54:                                               ; preds = %49, %48
  call void @llvm.lifetime.end.p0(i64 8, ptr %8) #5
  %55 = load i32, ptr %9, align 4
  switch i32 %55, label %62 [
    i32 0, label %56
  ]

56:                                               ; preds = %54
  br label %21, !llvm.loop !33

57:                                               ; preds = %21
  %58 = load ptr, ptr %4, align 8, !tbaa !4
  %59 = load i32, ptr %5, align 4, !tbaa !9
  %60 = load i32, ptr %6, align 4, !tbaa !9
  %61 = call i32 @fwd_aa_tab_clear(ptr noundef %58, i32 noundef %59, i32 noundef %60)
  store i32 %61, ptr %3, align 4
  store i32 1, ptr %9, align 4
  br label %62

62:                                               ; preds = %57, %54
  call void @llvm.lifetime.end.p0(i64 4, ptr %7) #5
  call void @llvm.lifetime.end.p0(i64 4, ptr %6) #5
  %63 = load i32, ptr %3, align 4
  ret i32 %63
}