; Function Attrs: nofree norecurse nosync nounwind memory(read, inaccessiblemem: none) uwtable
define hidden range(i32 0, 2) i32 @lj_opt_fwd_tptr(ptr noundef readonly captures(none) %0, i32 noundef %1) local_unnamed_addr #0 {
  %3 = getelementptr inbounds nuw i8, ptr %0, i64 184
  %4 = load i16, ptr %3, align 8, !tbaa !4
  %5 = getelementptr inbounds nuw i8, ptr %0, i64 520
  %.017.in32 = load i16, ptr %5, align 2, !tbaa !4
  %.01733 = zext i16 %.017.in32 to i32
  %6 = icmp ult i32 %1, %.01733
  br i1 %6, label %.lr.ph, label %._crit_edge

.lr.ph:                                           ; preds = %2
  %7 = getelementptr inbounds nuw i8, ptr %0, i64 32
  %8 = load ptr, ptr %7, align 8, !tbaa !7
  %9 = zext i16 %4 to i64
  %10 = getelementptr inbounds nuw %union.IRIns, ptr %8, i64 %9
  %11 = getelementptr inbounds nuw i8, ptr %10, i64 5
  %12 = ptrtoint ptr %8 to i64
  %13 = trunc i32 %1 to i16
  br label %14

14:                                               ; preds = %.lr.ph, %aa_table.exit
  %.017.in34 = phi i16 [ %.017.in32, %.lr.ph ], [ %.017.in, %aa_table.exit ]
  %15 = zext i16 %.017.in34 to i64
  %16 = getelementptr inbounds nuw %union.IRIns, ptr %8, i64 %15
  %17 = load i16, ptr %16, align 8, !tbaa !4
  %18 = icmp eq i16 %4, %17
  br i1 %18, label %fwd_aa_tab_clear.exit, label %19

19:                                               ; preds = %14
  %20 = zext i16 %17 to i64
  %21 = getelementptr inbounds nuw %union.IRIns, ptr %8, i64 %20
  %22 = load i8, ptr %11, align 1, !tbaa !4
  %23 = add i8 %22, -81
  %24 = getelementptr inbounds nuw i8, ptr %21, i64 5
  %25 = load i8, ptr %24, align 1, !tbaa !4
  %26 = add i8 %25, -81
  %27 = or i8 %26, %23
  %or.cond.i = icmp ult i8 %27, 2
  br i1 %or.cond.i, label %aa_table.exit, label %28

28:                                               ; preds = %19
  %switch.i = icmp ult i8 %26, 2
  br i1 %switch.i, label %30, label %29

29:                                               ; preds = %28
  %switch24.i = icmp ult i8 %23, 2
  br i1 %switch24.i, label %30, label %fwd_aa_tab_clear.exit

30:                                               ; preds = %29, %28
  %.020.i = phi ptr [ %10, %28 ], [ %21, %29 ]
  %.019.i = phi ptr [ %21, %28 ], [ %10, %29 ]
  %31 = ptrtoint ptr %.019.i to i64
  %32 = sub i64 %31, %12
  %33 = lshr exact i64 %32, 3
  %34 = trunc i64 %33 to i32
  %.0121.i.i = getelementptr inbounds nuw i8, ptr %.019.i, i64 8
  %35 = icmp ult ptr %.0121.i.i, %.020.i
  br i1 %35, label %.lr.ph.i.i, label %aa_table.exit

.lr.ph.i.i:                                       ; preds = %30, %43
  %.0123.i.i = phi ptr [ %.012.i.i, %43 ], [ %.0121.i.i, %30 ]
  %.pn2.i.i = phi ptr [ %.0123.i.i, %43 ], [ %.019.i, %30 ]
  %36 = getelementptr inbounds nuw i8, ptr %.pn2.i.i, i64 10
  %37 = load i16, ptr %36, align 2, !tbaa !4
  %38 = zext i16 %37 to i32
  %39 = icmp eq i32 %38, %34
  br i1 %39, label %40, label %43

40:                                               ; preds = %.lr.ph.i.i
  %41 = getelementptr inbounds nuw i8, ptr %.pn2.i.i, i64 13
  %42 = load i8, ptr %41, align 1, !tbaa !4
  %.off.i.i = add i8 %42, -74
  %switch.i.i = icmp ult i8 %.off.i.i, 4
  br i1 %switch.i.i, label %fwd_aa_tab_clear.exit, label %43

43:                                               ; preds = %40, %.lr.ph.i.i
  %.012.i.i = getelementptr inbounds nuw i8, ptr %.0123.i.i, i64 8
  %44 = icmp ult ptr %.012.i.i, %.020.i
  br i1 %44, label %.lr.ph.i.i, label %aa_table.exit, !llvm.loop !28

aa_table.exit:                                    ; preds = %43, %30, %19
  %45 = getelementptr inbounds nuw i8, ptr %16, i64 6
  %.017.in = load i16, ptr %45, align 2, !tbaa !4
  %46 = icmp ugt i16 %.017.in, %13
  br i1 %46, label %14, label %._crit_edge, !llvm.loop !30

._crit_edge:                                      ; preds = %aa_table.exit, %2
  %47 = getelementptr inbounds nuw i8, ptr %0, i64 598
  %.014.in25.i = load i16, ptr %47, align 2, !tbaa !4
  %.01426.i = zext i16 %.014.in25.i to i32
  %48 = icmp ult i32 %1, %.01426.i
  br i1 %48, label %.lr.ph.i, label %fwd_aa_tab_clear.exit

.lr.ph.i:                                         ; preds = %._crit_edge
  %49 = getelementptr inbounds nuw i8, ptr %0, i64 32
  %50 = load ptr, ptr %49, align 8, !tbaa !7
  %51 = zext i16 %4 to i64
  %52 = getelementptr inbounds nuw %union.IRIns, ptr %50, i64 %51
  %53 = getelementptr inbounds nuw i8, ptr %52, i64 5
  %54 = ptrtoint ptr %50 to i64
  %55 = trunc i32 %1 to i16
  br label %56

56:                                               ; preds = %aa_table.exit.i, %.lr.ph.i
  %.014.in27.i = phi i16 [ %.014.in25.i, %.lr.ph.i ], [ %.014.in.i, %aa_table.exit.i ]
  %57 = zext i16 %.014.in27.i to i64
  %58 = getelementptr inbounds nuw %union.IRIns, ptr %50, i64 %57
  %59 = getelementptr inbounds nuw i8, ptr %58, i64 2
  %60 = load i16, ptr %59, align 2, !tbaa !4
  %61 = icmp eq i16 %60, 34
  br i1 %61, label %62, label %aa_table.exit.i

62:                                               ; preds = %56
  %63 = load i16, ptr %58, align 8, !tbaa !4
  %64 = icmp eq i16 %4, %63
  br i1 %64, label %fwd_aa_tab_clear.exit, label %65

65:                                               ; preds = %62
  %66 = zext i16 %63 to i64
  %67 = getelementptr inbounds nuw %union.IRIns, ptr %50, i64 %66
  %68 = load i8, ptr %53, align 1, !tbaa !4
  %69 = add i8 %68, -81
  %70 = getelementptr inbounds nuw i8, ptr %67, i64 5
  %71 = load i8, ptr %70, align 1, !tbaa !4
  %72 = add i8 %71, -81
  %73 = or i8 %72, %69
  %or.cond.i.i = icmp ult i8 %73, 2
  br i1 %or.cond.i.i, label %aa_table.exit.i, label %74

74:                                               ; preds = %65
  %switch.i.i22 = icmp ult i8 %72, 2
  br i1 %switch.i.i22, label %76, label %75

75:                                               ; preds = %74
  %switch24.i.i = icmp ult i8 %69, 2
  br i1 %switch24.i.i, label %76, label %fwd_aa_tab_clear.exit

76:                                               ; preds = %75, %74
  %.020.i.i = phi ptr [ %52, %74 ], [ %67, %75 ]
  %.019.i.i = phi ptr [ %67, %74 ], [ %52, %75 ]
  %77 = ptrtoint ptr %.019.i.i to i64
  %78 = sub i64 %77, %54
  %79 = lshr exact i64 %78, 3
  %80 = trunc i64 %79 to i32
  %.0121.i.i.i = getelementptr inbounds nuw i8, ptr %.019.i.i, i64 8
  %81 = icmp ult ptr %.0121.i.i.i, %.020.i.i
  br i1 %81, label %.lr.ph.i.i.i, label %aa_table.exit.i

.lr.ph.i.i.i:                                     ; preds = %76, %89
  %.0123.i.i.i = phi ptr [ %.012.i.i.i, %89 ], [ %.0121.i.i.i, %76 ]
  %.pn2.i.i.i = phi ptr [ %.0123.i.i.i, %89 ], [ %.019.i.i, %76 ]
  %82 = getelementptr inbounds nuw i8, ptr %.pn2.i.i.i, i64 10
  %83 = load i16, ptr %82, align 2, !tbaa !4
  %84 = zext i16 %83 to i32
  %85 = icmp eq i32 %84, %80
  br i1 %85, label %86, label %89

86:                                               ; preds = %.lr.ph.i.i.i
  %87 = getelementptr inbounds nuw i8, ptr %.pn2.i.i.i, i64 13
  %88 = load i8, ptr %87, align 1, !tbaa !4
  %.off.i.i.i = add i8 %88, -74
  %switch.i.i.i = icmp ult i8 %.off.i.i.i, 4
  br i1 %switch.i.i.i, label %fwd_aa_tab_clear.exit, label %89

89:                                               ; preds = %86, %.lr.ph.i.i.i
  %.012.i.i.i = getelementptr inbounds nuw i8, ptr %.0123.i.i.i, i64 8
  %90 = icmp ult ptr %.012.i.i.i, %.020.i.i
  br i1 %90, label %.lr.ph.i.i.i, label %aa_table.exit.i, !llvm.loop !28

aa_table.exit.i:                                  ; preds = %89, %76, %65, %56
  %91 = getelementptr inbounds nuw i8, ptr %58, i64 6
  %.014.in.i = load i16, ptr %91, align 2, !tbaa !4
  %92 = icmp ugt i16 %.014.in.i, %55
  br i1 %92, label %56, label %fwd_aa_tab_clear.exit, !llvm.loop !31

fwd_aa_tab_clear.exit:                            ; preds = %29, %14, %40, %aa_table.exit.i, %75, %62, %86, %._crit_edge
  %.2 = phi i32 [ 1, %._crit_edge ], [ 0, %86 ], [ 0, %75 ], [ 0, %62 ], [ 1, %aa_table.exit.i ], [ 0, %40 ], [ 0, %14 ], [ 0, %29 ]
  ret i32 %.2
}